Certificate:
    Data:
        Version: 3 (0x2)
        Serial Number:
            63:a2:f8:6f:d1:8d:c8:18:db:0d:8d:98:09:19:4b:fb
        Signature Algorithm: sha256WithRSAEncryption
        Issuer: CN=rasvpn
        Validity
            Not Before: Apr  8 15:30:39 2023 GMT
            Not After : Jul 11 15:30:39 2025 GMT
        Subject: CN=rasvpn
        Subject Public Key Info:
            Public Key Algorithm: rsaEncryption
                RSA Public-Key: (2048 bit)
                Modulus:
                    00:c2:57:41:99:a5:ec:f6:b4:e8:53:7e:45:ab:01:
                    86:9e:b6:4c:a6:d8:23:21:0d:5a:36:c0:77:bb:eb:
                    c0:17:01:38:2c:6a:e0:ea:63:59:ca:42:f2:89:37:
                    bc:9f:7a:27:f0:9c:de:99:27:7f:db:90:39:be:0b:
                    b4:36:44:3e:c0:13:87:da:ec:de:e9:0c:21:46:f2:
                    88:f4:98:19:22:79:f0:33:66:c0:04:6b:f1:e7:4a:
                    30:e9:90:68:bf:c9:4b:20:f9:06:58:c2:32:6a:b9:
                    92:5b:60:5d:eb:6d:91:ac:72:2a:f9:0a:77:39:81:
                    f1:df:ad:8c:90:fc:fa:1a:ef:01:19:9d:09:24:3b:
                    bd:10:3e:b9:85:ba:bf:df:1b:67:68:ec:a3:f1:da:
                    62:b6:bb:cb:99:82:0b:87:21:0d:32:3c:19:c2:55:
                    93:b0:d2:18:20:fd:b0:47:b7:a4:ec:95:12:ab:16:
                    51:35:30:26:42:f3:52:41:7a:5a:e6:f1:0b:ec:c0:
                    45:54:c2:6a:cc:de:b4:33:07:65:ad:61:3a:01:7d:
                    5c:12:8c:65:f8:f4:7e:43:cd:e6:3c:d2:41:b1:48:
                    0a:77:9d:38:3d:d1:87:e8:2a:7c:9b:00:72:b8:82:
                    75:c5:ee:3b:48:a9:d2:5d:77:3e:5b:0c:f8:87:b3:
                    9b:99
                Exponent: 65537 (0x10001)
        X509v3 extensions:
            X509v3 Basic Constraints:
                CA:FALSE
            X509v3 Subject Key Identifier:
                A1:C8:43:F9:38:45:35:34:20:BA:02:A6:EA:C0:CC:0F:F2:CF:FA:69
            X509v3 Authority Key Identifier:
                keyid:D8:37:9B:CF:69:DB:84:AD:79:39:17:F9:0B:CA:EB:82:A0:97:DD:98
                DirName:/CN=rasvpn
                serial:27:09:BB:66:5F:04:4C:24:32:28:EF:E7:D5:BA:FB:91:2D:0D:5C:37

            X509v3 Extended Key Usage:
                TLS Web Server Authentication
            X509v3 Key Usage:
                Digital Signature, Key Encipherment
            X509v3 Subject Alternative Name:
                DNS:rasvpn
    Signature Algorithm: sha256WithRSAEncryption
         3a:40:44:ee:d3:c2:ca:21:19:bf:5d:6f:d9:4e:07:ab:83:32:
         e1:bd:f7:55:46:54:1e:ce:01:c1:7b:b1:be:bf:8a:da:e5:93:
         8b:ee:b4:f3:4c:24:22:78:ba:67:6a:cf:01:aa:a8:0b:b5:c7:
         16:9e:15:63:6f:69:31:8e:02:89:2f:96:bf:8b:36:4a:e3:ec:
         53:17:7f:ed:c4:0e:b7:7d:9e:c5:25:3f:b4:58:49:09:1c:85:
         09:19:4d:7b:7f:5a:95:b2:0c:87:a5:b7:32:34:9b:c1:62:69:
         64:2e:3f:8f:7b:72:4a:f9:c4:1a:96:7f:a5:c3:c8:8f:72:85:
         bb:2c:b6:4d:e3:2b:b2:0c:b2:9d:1d:0d:0c:75:b6:6f:9f:26:
         83:ed:48:8b:2b:54:41:13:11:6e:ef:f1:74:c8:08:6d:95:ee:
         bc:03:d4:45:e8:ac:48:55:f1:e6:3f:3d:00:9d:65:52:cc:f6:
         85:e1:e2:e4:73:ed:47:2c:b2:83:f1:6c:91:06:b6:6a:d7:a2:
         8d:73:f3:f7:53:2a:5a:bb:42:29:07:5a:3f:83:8f:cd:a4:13:
         20:6a:7d:02:c6:1a:be:a9:16:fb:5a:2f:e5:74:90:25:e2:05:
         af:f6:26:fc:0e:af:f0:8b:fa:a9:d0:f1:0f:96:13:51:c6:77:
         8d:9b:78:2d
-----BEGIN CERTIFICATE-----
MIIDXTCCAkWgAwIBAgIQY6L4b9GNyBjbDY2YCRlL+zANBgkqhkiG9w0BAQsFADAR
MQ8wDQYDVQQDDAZyYXN2cG4wHhcNMjMwNDA4MTUzMDM5WhcNMjUwNzExMTUzMDM5
WjARMQ8wDQYDVQQDDAZyYXN2cG4wggEiMA0GCSqGSIb3DQEBAQUAA4IBDwAwggEK
AoIBAQDCV0GZpez2tOhTfkWrAYaetkym2CMhDVo2wHe768AXATgsauDqY1nKQvKJ
N7yfeifwnN6ZJ3/bkDm+C7Q2RD7AE4fa7N7pDCFG8oj0mBkiefAzZsAEa/HnSjDp
kGi/yUsg+QZYwjJquZJbYF3rbZGscir5Cnc5gfHfrYyQ/Poa7wEZnQkkO70QPrmF
ur/fG2do7KPx2mK2u8uZgguHIQ0yPBnCVZOw0hgg/bBHt6TslRKrFlE1MCZC81JB
elrm8QvswEVUwmrM3rQzB2WtYToBfVwSjGX49H5DzeY80kGxSAp3nTg90YfoKnyb
AHK4gnXF7jtIqdJddz5bDPiHs5uZAgMBAAGjgbAwga0wCQYDVR0TBAIwADAdBgNV
HQ4EFgQUochD+ThFNTQgugKm6sDMD/LP+mkwTAYDVR0jBEUwQ4AU2Debz2nbhK15
ORf5C8rrgqCX3ZihFaQTMBExDzANBgNVBAMMBnJhc3ZwboIUJwm7Zl8ETCQyKO/n
1br7kS0NXDcwEwYDVR0lBAwwCgYIKwYBBQUHAwEwCwYDVR0PBAQDAgWgMBEGA1Ud
EQQKMAiCBnJhc3ZwbjANBgkqhkiG9w0BAQsFAAOCAQEAOkBE7tPCyiEZv11v2U4H
q4My4b33VUZUHs4BwXuxvr+K2uWTi+6080wkIni6Z2rPAaqoC7XHFp4VY29pMY4C
iS+Wv4s2SuPsUxd/7cQOt32exSU/tFhJCRyFCRlNe39albIMh6W3MjSbwWJpZC4/
j3tySvnEGpZ/pcPIj3KFuyy2TeMrsgyynR0NDHW2b58mg+1IiytUQRMRbu/xdMgI
bZXuvAPUReisSFXx5j89AJ1lUsz2heHi5HPtRyyyg/FskQa2ateijXPz91MqWrtC
KQdaP4OPzaQTIGp9AsYavqkW+1ov5XSQJeIFr/Ym/A6v8Iv6qdDxD5YTUcZ3jZt4
LQ==
-----END CERTIFICATE-----

